target datalayout = "e-m:e-p270:32:32-p271:32:32-p272:64:64-i64:64-i128:128-f80:128-n8:16:32:64-S128"
target triple = "x86_64-pc-linux-gnu"

%struct.DES_ks = type { [16 x %union.anon] }
%union.anon = type { [2 x i32] }

@.str.24 = private unnamed_addr constant [26 x i8] c"../openssl/test/destest.c\00", align 1
@plain = internal global [24 x i8] c"Now is the time for all ", align 16
@.str.48 = private unnamed_addr constant [6 x i8] c"plain\00", align 1
@ofb_key = internal global [8 x i8] c"\01#Eg\89\AB\CD\EF", align 1
@ofb_tmp = internal global [8 x i8] zeroinitializer, align 1
@ofb_iv = internal global [8 x i8] c"\124Vx\90\AB\CD\EF", align 1
@ofb_buf1 = internal global [24 x i8] zeroinitializer, align 16
@.str.52 = private unnamed_addr constant [11 x i8] c"ofb_cipher\00", align 1
@.str.53 = private unnamed_addr constant [9 x i8] c"ofb_buf1\00", align 1
@ofb_cipher = internal global [24 x i8] c"\F3\09bI\C7\F4nQ5\F2J$.\EB=?=m[\E3%Z\F8\C3", align 16
@ofb_buf2 = internal global [24 x i8] zeroinitializer, align 16
@.str.54 = private unnamed_addr constant [9 x i8] c"ofb_buf2\00", align 1

; Function Attrs: nounwind uwtable
define internal i32 @test_des_ofb64() #0 {
  %1 = alloca i32, align 4
  %2 = alloca %struct.DES_ks, align 4
  %3 = alloca i32, align 4
  %4 = alloca i64, align 8
  %5 = alloca i32, align 4
  call void @llvm.lifetime.start.p0(i64 128, ptr %2) #6
  call void @llvm.lifetime.start.p0(i64 4, ptr %3) #6
  call void @llvm.lifetime.start.p0(i64 8, ptr %4) #6
  %6 = call i32 @DES_set_key_checked(ptr noundef @ofb_key, ptr noundef %2)
  call void @llvm.memcpy.p0.p0.i64(ptr align 1 @ofb_tmp, ptr align 1 @ofb_iv, i64 8, i1 false)
  call void @llvm.memset.p0.i64(ptr align 16 @ofb_buf1, i8 0, i64 24, i1 false)
  call void @llvm.memset.p0.i64(ptr align 16 @ofb_buf2, i8 0, i64 24, i1 false)
  store i32 0, ptr %3, align 4, !tbaa !4
  store i64 0, ptr %4, align 8, !tbaa !8
  br label %7

7:                                                ; preds = %15, %0
  %8 = load i64, ptr %4, align 8, !tbaa !8
  %9 = icmp ult i64 %8, 24
  br i1 %9, label %10, label %18

10:                                               ; preds = %7
  %11 = load i64, ptr %4, align 8, !tbaa !8
  %12 = getelementptr inbounds nuw [24 x i8], ptr @plain, i64 0, i64 %11
  %13 = load i64, ptr %4, align 8, !tbaa !8
  %14 = getelementptr inbounds nuw [24 x i8], ptr @ofb_buf1, i64 0, i64 %13
  call void @DES_ofb64_encrypt(ptr noundef %12, ptr noundef %14, i64 noundef 1, ptr noundef %2, ptr noundef @ofb_tmp, ptr noundef %3)
  br label %15

15:                                               ; preds = %10
  %16 = load i64, ptr %4, align 8, !tbaa !8
  %17 = add i64 %16, 1
  store i64 %17, ptr %4, align 8, !tbaa !8
  br label %7, !llvm.loop !13

18:                                               ; preds = %7
  %19 = call i32 @test_mem_eq(ptr noundef @.str.24, i32 noundef 645, ptr noundef @.str.52, ptr noundef @.str.53, ptr noundef @ofb_cipher, i64 noundef 24, ptr noundef @ofb_buf1, i64 noundef 24)
  %20 = icmp ne i32 %19, 0
  br i1 %20, label %22, label %21

21:                                               ; preds = %18
  store i32 0, ptr %1, align 4
  store i32 1, ptr %5, align 4
  br label %24

22:                                               ; preds = %18
  call void @llvm.memcpy.p0.p0.i64(ptr align 1 @ofb_tmp, ptr align 1 @ofb_iv, i64 8, i1 false)
  store i32 0, ptr %3, align 4, !tbaa !4
  call void @DES_ofb64_encrypt(ptr noundef @ofb_buf1, ptr noundef @ofb_buf2, i64 noundef 24, ptr noundef %2, ptr noundef @ofb_tmp, ptr noundef %3)
  %23 = call i32 @test_mem_eq(ptr noundef @.str.24, i32 noundef 651, ptr noundef @.str.48, ptr noundef @.str.54, ptr noundef @plain, i64 noundef 24, ptr noundef @ofb_buf2, i64 noundef 24)
  store i32 %23, ptr %1, align 4
  store i32 1, ptr %5, align 4
  br label %24

24:                                               ; preds = %22, %21
  call void @llvm.lifetime.end.p0(i64 8, ptr %4) #6
  call void @llvm.lifetime.end.p0(i64 4, ptr %3) #6
  call void @llvm.lifetime.end.p0(i64 128, ptr %2) #6
  %25 = load i32, ptr %1, align 4
  ret i32 %25
}