; Function Attrs: nounwind uwtable
define internal i32 @test_des_ofb64() #0 {
  %1 = alloca %struct.DES_ks, align 4
  %2 = alloca i32, align 4
  call void @llvm.lifetime.start.p0(i64 128, ptr nonnull %1) #6
  call void @llvm.lifetime.start.p0(i64 4, ptr nonnull %2) #6
  %3 = call i32 @DES_set_key_checked(ptr noundef nonnull @ofb_key, ptr noundef nonnull %1) #6
  store i64 -1167088091436534766, ptr @ofb_tmp, align 8
  call void @llvm.memset.p0.i64(ptr noundef nonnull align 16 dereferenceable(24) @ofb_buf1, i8 0, i64 24, i1 false)
  call void @llvm.memset.p0.i64(ptr noundef nonnull align 16 dereferenceable(24) @ofb_buf2, i8 0, i64 24, i1 false)
  store i32 0, ptr %2, align 4, !tbaa !9
  br label %4

4:                                                ; preds = %0, %4
  %.06 = phi i64 [ 0, %0 ], [ %7, %4 ]
  %5 = getelementptr inbounds nuw [24 x i8], ptr @plain, i64 0, i64 %.06
  %6 = getelementptr inbounds nuw [24 x i8], ptr @ofb_buf1, i64 0, i64 %.06
  call void @DES_ofb64_encrypt(ptr noundef nonnull %5, ptr noundef nonnull %6, i64 noundef 1, ptr noundef nonnull %1, ptr noundef nonnull @ofb_tmp, ptr noundef nonnull %2) #6
  %7 = add nuw nsw i64 %.06, 1
  %exitcond.not = icmp eq i64 %7, 24
  br i1 %exitcond.not, label %8, label %4, !llvm.loop !13

8:                                                ; preds = %4
  %9 = call i32 @test_mem_eq(ptr noundef nonnull @.str.24, i32 noundef 645, ptr noundef nonnull @.str.52, ptr noundef nonnull @.str.53, ptr noundef nonnull @ofb_cipher, i64 noundef 24, ptr noundef nonnull @ofb_buf1, i64 noundef 24) #6
  %.not = icmp eq i32 %9, 0
  br i1 %.not, label %12, label %10

10:                                               ; preds = %8
  store i64 -1167088091436534766, ptr @ofb_tmp, align 8
  store i32 0, ptr %2, align 4, !tbaa !9
  call void @DES_ofb64_encrypt(ptr noundef nonnull @ofb_buf1, ptr noundef nonnull @ofb_buf2, i64 noundef 24, ptr noundef nonnull %1, ptr noundef nonnull @ofb_tmp, ptr noundef nonnull %2) #6
  %11 = call i32 @test_mem_eq(ptr noundef nonnull @.str.24, i32 noundef 651, ptr noundef nonnull @.str.48, ptr noundef nonnull @.str.54, ptr noundef nonnull @plain, i64 noundef 24, ptr noundef nonnull @ofb_buf2, i64 noundef 24) #6
  br label %12

12:                                               ; preds = %8, %10
  %.05 = phi i32 [ %11, %10 ], [ 0, %8 ]
  call void @llvm.lifetime.end.p0(i64 4, ptr nonnull %2) #6
  call void @llvm.lifetime.end.p0(i64 128, ptr nonnull %1) #6
  ret i32 %.05
}